; Function Attrs: null_pointer_is_valid sspstrong uwtable
define internal i32 @dissect_s1ap_MME_UE_S1AP_ID(ptr noundef %0, i32 noundef %1, ptr noundef %2, ptr noundef %3, i32 noundef %4) #0 {
  %6 = alloca i32, align 4
  call void @llvm.lifetime.start.p0(i64 4, ptr nonnull %6) #8
  %7 = call i32 @dissect_per_constrained_integer(ptr noundef %0, i32 noundef %1, ptr noundef %2, ptr noundef %3, i32 noundef %4, i32 noundef 0, i32 noundef -1, ptr noundef nonnull %6, i1 noundef zeroext false)
  %8 = load i32, ptr @hf_s1ap_mME_UE_S1AP_ID, align 4
  %9 = icmp eq i32 %4, %8
  br i1 %9, label %10, label %proto_item_set_hidden.exit

10:                                               ; preds = %5
  %11 = load i32, ptr @hf_s1ap_MME_UE_S1AP_ID_PDU, align 4
  %12 = load i32, ptr %6, align 4
  %13 = call ptr @proto_tree_add_uint(ptr noundef %3, i32 noundef %11, ptr noundef %0, i32 noundef %7, i32 noundef 0, i32 noundef %12)
  %.not.i = icmp eq ptr %13, null
  br i1 %.not.i, label %proto_item_set_hidden.exit, label %14

14:                                               ; preds = %10
  %15 = getelementptr inbounds nuw i8, ptr %13, i64 40
  %16 = load ptr, ptr %15, align 8
  %.not5.i = icmp eq ptr %16, null
  br i1 %.not5.i, label %proto_item_set_hidden.exit, label %17

17:                                               ; preds = %14
  %18 = getelementptr inbounds nuw i8, ptr %16, i64 28
  %19 = load i32, ptr %18, align 4
  %20 = or i32 %19, 1
  store i32 %20, ptr %18, align 4
  br label %proto_item_set_hidden.exit

proto_item_set_hidden.exit:                       ; preds = %17, %14, %10, %5
  call void @llvm.lifetime.end.p0(i64 4, ptr nonnull %6) #8
  ret i32 %7
}